target datalayout = "e-m:e-p270:32:32-p271:32:32-p272:64:64-i64:64-i128:128-f80:128-n8:16:32:64-S128"
target triple = "x86_64-pc-linux-gnu"

%struct.mbedtls_mpi = type { ptr, i16, i16 }

; Function Attrs: nounwind uwtable
define hidden i64 @mbedtls_mpi_bitlen(ptr noundef %0) #0 {
  %2 = alloca ptr, align 8
  store ptr %0, ptr %2, align 8, !tbaa !3
  %3 = load ptr, ptr %2, align 8, !tbaa !3
  %4 = getelementptr inbounds nuw %struct.mbedtls_mpi, ptr %3, i32 0, i32 0
  %5 = load ptr, ptr %4, align 8, !tbaa !17
  %6 = load ptr, ptr %2, align 8, !tbaa !3
  %7 = getelementptr inbounds nuw %struct.mbedtls_mpi, ptr %6, i32 0, i32 2
  %8 = load i16, ptr %7, align 2, !tbaa !10
  %9 = zext i16 %8 to i64
  %10 = call i64 @mbedtls_mpi_core_bitlen(ptr noundef %5, i64 noundef %9)
  ret i64 %10
}

; Function Attrs: nounwind uwtable
define hidden i64 @mbedtls_mpi_size(ptr noundef %0) #0 {
  %2 = alloca ptr, align 8
  store ptr %0, ptr %2, align 8, !tbaa !3
  %3 = load ptr, ptr %2, align 8, !tbaa !3
  %4 = call i64 @mbedtls_mpi_bitlen(ptr noundef %3)
  %5 = add i64 %4, 7
  %6 = lshr i64 %5, 3
  ret i64 %6
}