; Function Attrs: nounwind uwtable
define hidden range(i64 0, 2305843009213693952) i64 @mbedtls_mpi_size(ptr noundef readonly captures(none) %0) local_unnamed_addr #0 {
  %2 = load ptr, ptr %0, align 8, !tbaa !12
  %3 = getelementptr inbounds nuw i8, ptr %0, i64 10
  %4 = load i16, ptr %3, align 2, !tbaa !3
  %5 = zext i16 %4 to i64
  %6 = tail call i64 @mbedtls_mpi_core_bitlen(ptr noundef %2, i64 noundef %5) #16
  %7 = add i64 %6, 7
  %8 = lshr i64 %7, 3
  ret i64 %8
}